target datalayout = "e-m:e-p270:32:32-p271:32:32-p272:64:64-i64:64-i128:128-f80:128-n8:16:32:64-S128"
target triple = "x86_64-pc-linux-gnu"

@rb_eRuntimeError = external global i64, align 8
@set_option_encoding_once.rbimpl_id = internal global i64 0, align 8
@.str.58 = private unnamed_addr constant [8 x i8] c"casecmp\00", align 1
@.str.59 = private unnamed_addr constant [23 x i8] c"%s already set to %li\0B\00", align 1

; Function Attrs: inlinehint nounwind sspstrong willreturn memory(read) uwtable
define internal i64 @rb_intern_const(ptr noundef nonnull %0) #7 {
  %2 = alloca ptr, align 8
  %3 = alloca i64, align 8
  store ptr %0, ptr %2, align 8, !tbaa !7
  call void @llvm.lifetime.start.p0(i64 8, ptr %3) #24
  %4 = load ptr, ptr %2, align 8, !tbaa !7
  %5 = call i64 @strlen(ptr noundef %4) #25
  store i64 %5, ptr %3, align 8, !tbaa !42
  %6 = load ptr, ptr %2, align 8, !tbaa !7
  %7 = load i64, ptr %3, align 8, !tbaa !42
  %8 = call i64 @rb_intern2(ptr noundef %6, i64 noundef %7)
  call void @llvm.lifetime.end.p0(i64 8, ptr %3) #24
  ret i64 %8
}

; Function Attrs: inlinehint nounwind sspstrong memory(argmem: readwrite, inaccessiblemem: readwrite) uwtable
define internal i64 @rbimpl_intern_const(ptr noundef nonnull %0, ptr noundef nonnull %1) #18 {
  %3 = alloca ptr, align 8
  %4 = alloca ptr, align 8
  store ptr %0, ptr %3, align 8, !tbaa !72
  store ptr %1, ptr %4, align 8, !tbaa !7
  br label %5

5:                                                ; preds = %10, %2
  %6 = load ptr, ptr %3, align 8, !tbaa !72
  %7 = load i64, ptr %6, align 8, !tbaa !42
  %8 = icmp ne i64 %7, 0
  %9 = xor i1 %8, true
  br i1 %9, label %10, label %14

10:                                               ; preds = %5
  %11 = load ptr, ptr %4, align 8, !tbaa !7
  %12 = call i64 @rb_intern_const(ptr noundef %11) #25
  %13 = load ptr, ptr %3, align 8, !tbaa !72
  store i64 %12, ptr %13, align 8, !tbaa !42
  br label %5, !llvm.loop !151

14:                                               ; preds = %5
  %15 = load ptr, ptr %3, align 8, !tbaa !72
  %16 = load i64, ptr %15, align 8, !tbaa !42
  ret i64 %16
}

; Function Attrs: nounwind sspstrong uwtable
define internal void @set_option_encoding_once(ptr noundef %0, ptr noundef %1, ptr noundef %2, i64 noundef %3) #0 {
  %5 = alloca ptr, align 8
  %6 = alloca ptr, align 8
  %7 = alloca ptr, align 8
  %8 = alloca i64, align 8
  %9 = alloca i64, align 8
  %10 = alloca i64, align 8
  store ptr %0, ptr %5, align 8, !tbaa !7
  store ptr %1, ptr %6, align 8, !tbaa !72
  store ptr %2, ptr %7, align 8, !tbaa !7
  store i64 %3, ptr %8, align 8, !tbaa !42
  call void @llvm.lifetime.start.p0(i64 8, ptr %9) #24
  %11 = load i64, ptr %8, align 8, !tbaa !42
  %12 = icmp ne i64 %11, 0
  br i1 %12, label %16, label %13

13:                                               ; preds = %4
  %14 = load ptr, ptr %7, align 8, !tbaa !7
  %15 = call i64 @strlen(ptr noundef %14) #25
  store i64 %15, ptr %8, align 8, !tbaa !42
  br label %16

16:                                               ; preds = %13, %4
  br i1 false, label %17, label %20

17:                                               ; preds = %16
  %18 = load i64, ptr %8, align 8, !tbaa !42
  %19 = call i1 @llvm.is.constant.i64(i64 %18)
  br label %20

20:                                               ; preds = %17, %16
  %21 = phi i1 [ false, %16 ], [ %19, %17 ]
  %22 = select i1 %21, ptr @rb_str_new_static, ptr @rb_str_new
  %23 = load ptr, ptr %7, align 8, !tbaa !7
  %24 = load i64, ptr %8, align 8, !tbaa !42
  %25 = call i64 %22(ptr noundef %23, i64 noundef %24)
  store i64 %25, ptr %9, align 8, !tbaa !42
  %26 = load ptr, ptr %6, align 8, !tbaa !72
  %27 = load i64, ptr %26, align 8, !tbaa !42
  %28 = icmp ne i64 %27, 0
  br i1 %28, label %29, label %42

29:                                               ; preds = %20
  %30 = load i64, ptr %9, align 8, !tbaa !42
  %31 = call i64 @rbimpl_intern_const(ptr noundef @set_option_encoding_once.rbimpl_id, ptr noundef @.str.58) #29
  store i64 %31, ptr %10, align 8, !tbaa !42
  %32 = load i64, ptr %10, align 8, !tbaa !42
  %33 = load ptr, ptr %6, align 8, !tbaa !72
  %34 = load i64, ptr %33, align 8, !tbaa !42
  %35 = call i64 (i64, i64, i32, ...) @rb_funcall(i64 noundef %30, i64 noundef %32, i32 noundef 1, i64 noundef %34)
  %36 = icmp ne i64 %35, 1
  br i1 %36, label %37, label %42

37:                                               ; preds = %29
  %38 = load i64, ptr @rb_eRuntimeError, align 8, !tbaa !42
  %39 = load ptr, ptr %5, align 8, !tbaa !7
  %40 = load ptr, ptr %6, align 8, !tbaa !72
  %41 = load i64, ptr %40, align 8, !tbaa !42
  call void (i64, ptr, ...) @rb_raise(i64 noundef %38, ptr noundef @.str.59, ptr noundef %39, i64 noundef %41) #26
  unreachable

42:                                               ; preds = %29, %20
  %43 = load i64, ptr %9, align 8, !tbaa !42
  %44 = load ptr, ptr %6, align 8, !tbaa !72
  store i64 %43, ptr %44, align 8, !tbaa !42
  call void @llvm.lifetime.end.p0(i64 8, ptr %9) #24
  ret void
}