; Function Attrs: nounwind sspstrong uwtable
define internal fastcc void @set_option_encoding_once(ptr noundef %0, ptr noundef captures(none) %1, ptr noundef %2, i64 noundef %3) unnamed_addr #0 {
  %.not = icmp eq i64 %3, 0
  br i1 %.not, label %5, label %7

5:                                                ; preds = %4
  %6 = tail call i64 @strlen(ptr noundef nonnull dereferenceable(1) %2) #24
  br label %7

7:                                                ; preds = %4, %5
  %.0 = phi i64 [ %3, %4 ], [ %6, %5 ]
  %8 = tail call i64 @rb_str_new(ptr noundef %2, i64 noundef %.0) #25
  %9 = load i64, ptr %1, align 8, !tbaa !47
  %.not12 = icmp eq i64 %9, 0
  br i1 %.not12, label %17, label %10

10:                                               ; preds = %7
  %.pr.i = load i64, ptr @set_option_encoding_once.rbimpl_id, align 8, !tbaa !47
  %.not4.i = icmp eq i64 %.pr.i, 0
  br i1 %.not4.i, label %.lr.ph.i, label %rbimpl_intern_const.exit

.lr.ph.i:                                         ; preds = %10, %.lr.ph.i
  %11 = tail call i64 @rb_intern2(ptr noundef nonnull @.str.58, i64 noundef 7) #25
  store i64 %11, ptr @set_option_encoding_once.rbimpl_id, align 8, !tbaa !47
  %.not.i = icmp eq i64 %11, 0
  br i1 %.not.i, label %.lr.ph.i, label %rbimpl_intern_const.exit.loopexit, !llvm.loop !163

rbimpl_intern_const.exit.loopexit:                ; preds = %.lr.ph.i
  %.pre = load i64, ptr %1, align 8, !tbaa !47
  br label %rbimpl_intern_const.exit

rbimpl_intern_const.exit:                         ; preds = %rbimpl_intern_const.exit.loopexit, %10
  %12 = phi i64 [ %9, %10 ], [ %.pre, %rbimpl_intern_const.exit.loopexit ]
  %.lcssa.i = phi i64 [ %.pr.i, %10 ], [ %11, %rbimpl_intern_const.exit.loopexit ]
  %13 = tail call i64 (i64, i64, i32, ...) @rb_funcall(i64 noundef %8, i64 noundef %.lcssa.i, i32 noundef 1, i64 noundef %12) #25
  %.not13 = icmp eq i64 %13, 1
  br i1 %.not13, label %17, label %14

14:                                               ; preds = %rbimpl_intern_const.exit
  %15 = load i64, ptr @rb_eRuntimeError, align 8, !tbaa !47
  %16 = load i64, ptr %1, align 8, !tbaa !47
  tail call void (i64, ptr, ...) @rb_raise(i64 noundef %15, ptr noundef nonnull @.str.59, ptr noundef %0, i64 noundef %16) #26
  unreachable

17:                                               ; preds = %rbimpl_intern_const.exit, %7
  store i64 %8, ptr %1, align 8, !tbaa !47
  ret void
}